; Function Attrs: nounwind uwtable
define dso_local noundef i32 @init() local_unnamed_addr #0 {
  %1 = load i16, ptr getelementptr inbounds nuw (i8, ptr @slurm_conf, i64 1120), align 8
  store i16 %1, ptr @cr_type, align 2
  %.not = icmp eq i16 %1, 0
  br i1 %.not, label %8, label %2

2:                                                ; preds = %0
  %3 = tail call i32 @slurm_get_log_level() #11
  %4 = icmp sgt i32 %3, 3
  br i1 %4, label %5, label %8

5:                                                ; preds = %2
  %6 = load i16, ptr @cr_type, align 2
  %7 = zext i16 %6 to i32
  tail call void (i32, ptr, ...) @slurm_log_var(i32 noundef 4, ptr noundef nonnull @.str, ptr noundef nonnull @plugin_type, ptr noundef nonnull @__func__.init, ptr noundef nonnull @plugin_name, i32 noundef %7) #11
  br label %8

8:                                                ; preds = %2, %5, %0
  ret i32 0
}